; Function Attrs: nounwind uwtable
define hidden void @dissect_zbee_zdp_req_ext_simple_desc(ptr noundef %0, ptr noundef %1, ptr noundef %2) local_unnamed_addr #0 {
  %4 = alloca i32, align 4
  %5 = alloca i32, align 4
  %6 = load i32, ptr @hf_zbee_zdp_nwk_addr, align 4
  %7 = call ptr @proto_tree_add_item_ret_uint(ptr noundef %2, i32 noundef %6, ptr noundef %0, i32 noundef 0, i32 noundef 2, i32 noundef -2147483648, ptr noundef nonnull %4) #2
  %8 = load i32, ptr @hf_zbee_zdp_endpoint, align 4
  %9 = call ptr @proto_tree_add_item_ret_uint(ptr noundef %2, i32 noundef %8, ptr noundef %0, i32 noundef 2, i32 noundef 1, i32 noundef -2147483648, ptr noundef nonnull %5) #2
  %10 = load i32, ptr @hf_zbee_zdp_index, align 4
  %11 = call ptr @proto_tree_add_item(ptr noundef %2, i32 noundef %10, ptr noundef %0, i32 noundef 3, i32 noundef 1, i32 noundef -2147483648) #2
  %12 = load i32, ptr %4, align 4
  %13 = load i32, ptr %5, align 4
  call void (ptr, ptr, ptr, ...) @zbee_append_info(ptr noundef %2, ptr noundef %1, ptr noundef nonnull @.str.2, i32 noundef %12, i32 noundef %13) #2
  call void @zdp_dump_excess(ptr noundef %0, i32 noundef 4, ptr noundef %1, ptr noundef %2) #2
  ret void
}